target datalayout = "e-m:e-p270:32:32-p271:32:32-p272:64:64-i64:64-i128:128-f80:128-n8:16:32:64-S128"
target triple = "x86_64-pc-linux-gnu"

%struct.passwd = type { ptr, ptr, i32, i32, ptr, ptr, ptr }

@.str.101 = private unnamed_addr constant [5 x i8] c"HOME\00", align 1

; Function Attrs: nounwind uwtable
define zeroext i1 @pqGetHomeDirectory(ptr noundef %0, i32 noundef %1) #0 {
  %3 = alloca i1, align 1
  %4 = alloca ptr, align 8
  %5 = alloca i32, align 4
  %6 = alloca ptr, align 8
  %7 = alloca i32, align 4
  %8 = alloca %struct.passwd, align 8
  %9 = alloca ptr, align 8
  %10 = alloca [1024 x i8], align 16
  %11 = alloca i32, align 4
  store ptr %0, ptr %4, align 8
  store i32 %1, ptr %5, align 4
  call void @llvm.lifetime.start.p0(i64 8, ptr %6) #12
  %12 = call ptr @getenv(ptr noundef @.str.101) #12
  store ptr %12, ptr %6, align 8
  %13 = load ptr, ptr %6, align 8
  %14 = icmp ne ptr %13, null
  br i1 %14, label %15, label %27

15:                                               ; preds = %2
  %16 = load ptr, ptr %6, align 8
  %17 = getelementptr inbounds i8, ptr %16, i64 0
  %18 = load i8, ptr %17, align 1
  %19 = sext i8 %18 to i32
  %20 = icmp ne i32 %19, 0
  br i1 %20, label %21, label %27

21:                                               ; preds = %15
  %22 = load ptr, ptr %4, align 8
  %23 = load ptr, ptr %6, align 8
  %24 = load i32, ptr %5, align 4
  %25 = sext i32 %24 to i64
  %26 = call i64 @strlcpy(ptr noundef %22, ptr noundef %23, i64 noundef %25)
  store i1 true, ptr %3, align 1
  store i32 1, ptr %7, align 4
  br label %46

27:                                               ; preds = %15, %2
  call void @llvm.lifetime.start.p0(i64 48, ptr %8) #12
  call void @llvm.lifetime.start.p0(i64 8, ptr %9) #12
  call void @llvm.lifetime.start.p0(i64 1024, ptr %10) #12
  call void @llvm.lifetime.start.p0(i64 4, ptr %11) #12
  %28 = call i32 @geteuid() #12
  %29 = getelementptr inbounds [1024 x i8], ptr %10, i64 0, i64 0
  %30 = call i32 @getpwuid_r(i32 noundef %28, ptr noundef %8, ptr noundef %29, i64 noundef 1024, ptr noundef %9)
  store i32 %30, ptr %11, align 4
  %31 = load i32, ptr %11, align 4
  %32 = icmp ne i32 %31, 0
  br i1 %32, label %36, label %33

33:                                               ; preds = %27
  %34 = load ptr, ptr %9, align 8
  %35 = icmp ne ptr %34, null
  br i1 %35, label %37, label %36

36:                                               ; preds = %33, %27
  store i1 false, ptr %3, align 1
  store i32 1, ptr %7, align 4
  br label %45

37:                                               ; preds = %33
  %38 = load ptr, ptr %4, align 8
  %39 = load ptr, ptr %9, align 8
  %40 = getelementptr inbounds nuw %struct.passwd, ptr %39, i32 0, i32 5
  %41 = load ptr, ptr %40, align 8
  %42 = load i32, ptr %5, align 4
  %43 = sext i32 %42 to i64
  %44 = call i64 @strlcpy(ptr noundef %38, ptr noundef %41, i64 noundef %43)
  store i1 true, ptr %3, align 1
  store i32 1, ptr %7, align 4
  br label %45

45:                                               ; preds = %37, %36
  call void @llvm.lifetime.end.p0(i64 4, ptr %11) #12
  call void @llvm.lifetime.end.p0(i64 1024, ptr %10) #12
  call void @llvm.lifetime.end.p0(i64 8, ptr %9) #12
  call void @llvm.lifetime.end.p0(i64 48, ptr %8) #12
  br label %46

46:                                               ; preds = %45, %21
  call void @llvm.lifetime.end.p0(i64 8, ptr %6) #12
  %47 = load i1, ptr %3, align 1
  ret i1 %47
}