; Function Attrs: nounwind uwtable
define noundef zeroext i1 @pqGetHomeDirectory(ptr noundef %0, i32 noundef %1) local_unnamed_addr #0 {
  %3 = alloca %struct.passwd, align 8
  %4 = alloca ptr, align 8
  %5 = alloca [1024 x i8], align 16
  %6 = tail call ptr @getenv(ptr noundef nonnull @.str.101) #25
  %.not = icmp eq ptr %6, null
  br i1 %.not, label %12, label %7

7:                                                ; preds = %2
  %8 = load i8, ptr %6, align 1
  %.not11 = icmp eq i8 %8, 0
  br i1 %.not11, label %12, label %9

9:                                                ; preds = %7
  %10 = sext i32 %1 to i64
  %11 = tail call i64 @strlcpy(ptr noundef %0, ptr noundef nonnull dereferenceable(1) %6, i64 noundef %10) #25
  br label %24

12:                                               ; preds = %7, %2
  call void @llvm.lifetime.start.p0(i64 48, ptr nonnull %3) #25
  call void @llvm.lifetime.start.p0(i64 8, ptr nonnull %4) #25
  call void @llvm.lifetime.start.p0(i64 1024, ptr nonnull %5) #25
  %13 = tail call i32 @geteuid() #25
  %14 = call i32 @getpwuid_r(i32 noundef %13, ptr noundef nonnull %3, ptr noundef nonnull %5, i64 noundef 1024, ptr noundef nonnull %4) #25
  %15 = icmp eq i32 %14, 0
  %16 = load ptr, ptr %4, align 8
  %17 = icmp ne ptr %16, null
  %or.cond = select i1 %15, i1 %17, i1 false
  br i1 %or.cond, label %18, label %23

18:                                               ; preds = %12
  %19 = getelementptr inbounds nuw i8, ptr %16, i64 32
  %20 = load ptr, ptr %19, align 8
  %21 = sext i32 %1 to i64
  %22 = call i64 @strlcpy(ptr noundef %0, ptr noundef nonnull dereferenceable(1) %20, i64 noundef %21) #25
  br label %23

23:                                               ; preds = %12, %18
  call void @llvm.lifetime.end.p0(i64 1024, ptr nonnull %5) #25
  call void @llvm.lifetime.end.p0(i64 8, ptr nonnull %4) #25
  call void @llvm.lifetime.end.p0(i64 48, ptr nonnull %3) #25
  br label %24

24:                                               ; preds = %23, %9
  %.0 = phi i1 [ true, %9 ], [ %or.cond, %23 ]
  ret i1 %.0
}